; Function Attrs: nounwind uwtable
define ptr @Gia_ManSatokoInit(ptr noundef readonly captures(none) %0, ptr noundef %1) local_unnamed_addr #0 {
  %3 = tail call ptr @satoko_create() #16
  %4 = getelementptr inbounds nuw i8, ptr %0, i64 16
  %5 = getelementptr inbounds nuw i8, ptr %0, i64 24
  br label %6

6:                                                ; preds = %10, %2
  %indvars.iv = phi i64 [ %indvars.iv.next, %10 ], [ 0, %2 ]
  %7 = load i32, ptr %4, align 8, !tbaa !33
  %8 = sext i32 %7 to i64
  %9 = icmp slt i64 %indvars.iv, %8
  br i1 %9, label %10, label %23

10:                                               ; preds = %6
  %11 = load ptr, ptr %5, align 8, !tbaa !39
  %12 = getelementptr inbounds nuw ptr, ptr %11, i64 %indvars.iv
  %13 = load ptr, ptr %12, align 8, !tbaa !40
  %indvars.iv.next = add nuw nsw i64 %indvars.iv, 1
  %14 = getelementptr inbounds nuw ptr, ptr %11, i64 %indvars.iv.next
  %15 = load ptr, ptr %14, align 8, !tbaa !40
  %16 = ptrtoint ptr %15 to i64
  %17 = ptrtoint ptr %13 to i64
  %18 = sub i64 %16, %17
  %19 = lshr exact i64 %18, 2
  %20 = trunc i64 %19 to i32
  %21 = tail call i32 @satoko_add_clause(ptr noundef %3, ptr noundef %13, i32 noundef %20) #16
  %.not = icmp eq i32 %21, 0
  br i1 %.not, label %22, label %6, !llvm.loop !41

22:                                               ; preds = %10
  tail call void @satoko_destroy(ptr noundef %3) #16
  br label %24

23:                                               ; preds = %6
  tail call void @satoko_configure(ptr noundef %3, ptr noundef %1) #16
  br label %24

24:                                               ; preds = %23, %22
  %.014 = phi ptr [ null, %22 ], [ %3, %23 ]
  ret ptr %.014
}